---
triple:          'arm64-apple-darwin'
binary-path:     "/Users/jeongminji/Desktop/백준/test/C++/mDFStop_3_2"
relocations:
  - { offsetInCU: 0x3F, offset: 0x3F, size: 0x8, addend: 0x0, symName: _tree, symObjAddr: 0x2BCA0, symBinAddr: 0x100008000, symSize: 0x0 }
  - { offsetInCU: 0x27D9, offset: 0x27D9, size: 0x8, addend: 0x0, symName: __ZNSt3__1L19piecewise_constructE, symObjAddr: 0x2BCC, symBinAddr: 0x100003D9C, symSize: 0x0 }
  - { offsetInCU: 0x560B, offset: 0x560B, size: 0x8, addend: 0x0, symName: __ZNSt3__124__put_character_sequenceB8ue170006IcNS_11char_traitsIcEEEERNS_13basic_ostreamIT_T0_EES7_PKS4_m, symObjAddr: 0xAD8, symBinAddr: 0x100001B54, symSize: 0x1EC }
  - { offsetInCU: 0x722E, offset: 0x722E, size: 0x8, addend: 0x0, symName: __ZNSt3__1lsB8ue170006INS_11char_traitsIcEEEERNS_13basic_ostreamIcT_EES6_c, symObjAddr: 0xE0, symBinAddr: 0x10000115C, symSize: 0x34 }
  - { offsetInCU: 0x72A7, offset: 0x72A7, size: 0x8, addend: 0x0, symName: __ZNSt3__119__libcpp_deallocateB8ue170006EPvmm, symObjAddr: 0x9F8, symBinAddr: 0x100001A74, symSize: 0x30 }
  - { offsetInCU: 0x72EF, offset: 0x72EF, size: 0x8, addend: 0x0, symName: __ZNSt3__127__do_deallocate_handle_sizeB8ue170006IJEEEvPvmDpT_, symObjAddr: 0xA28, symBinAddr: 0x100001AA4, symSize: 0x28 }
  - { offsetInCU: 0x732D, offset: 0x732D, size: 0x8, addend: 0x0, symName: __ZNSt3__124__libcpp_operator_deleteB8ue170006IJPvEEEvDpT_, symObjAddr: 0xA50, symBinAddr: 0x100001ACC, symSize: 0x24 }
  - { offsetInCU: 0x7362, offset: 0x7362, size: 0x8, addend: 0x0, symName: __ZNSt3__116__pad_and_outputB8ue170006IcNS_11char_traitsIcEEEENS_19ostreambuf_iteratorIT_T0_EES6_PKS4_S8_S8_RNS_8ios_baseES4_, symObjAddr: 0xCE0, symBinAddr: 0x100001D5C, symSize: 0x240 }
  - { offsetInCU: 0x7431, offset: 0x7431, size: 0x8, addend: 0x0, symName: __ZNSt3__112__to_addressB8ue170006IKcEEPT_S3_, symObjAddr: 0x1248, symBinAddr: 0x1000022C4, symSize: 0x14 }
  - { offsetInCU: 0x7499, offset: 0x7499, size: 0x8, addend: 0x0, symName: __ZNSt3__19use_facetB8ue170006INS_5ctypeIcEEEERKT_RKNS_6localeE, symObjAddr: 0x14C8, symBinAddr: 0x100002544, symSize: 0x2C }
  - { offsetInCU: 0x799D, offset: 0x799D, size: 0x8, addend: 0x0, symName: __ZNSt3__116forward_as_tupleB8ue170006IJRKiEEENS_5tupleIJDpOT_EEES6_, symObjAddr: 0x1660, symBinAddr: 0x1000026DC, symSize: 0x2C }
  - { offsetInCU: 0x79D6, offset: 0x79D6, size: 0x8, addend: 0x0, symName: __ZNSt3__116forward_as_tupleB8ue170006IJEEENS_5tupleIJDpOT_EEES4_, symObjAddr: 0x168C, symBinAddr: 0x100002708, symSize: 0x4 }
  - { offsetInCU: 0x7A18, offset: 0x7A18, size: 0x8, addend: 0x0, symName: __ZNSt3__117__libcpp_allocateB8ue170006Emm, symObjAddr: 0x1E8C, symBinAddr: 0x100002F08, symSize: 0x28 }
  - { offsetInCU: 0x7A55, offset: 0x7A55, size: 0x8, addend: 0x0, symName: __ZNSt3__121__libcpp_operator_newB8ue170006IJmEEEPvDpT_, symObjAddr: 0x1ECC, symBinAddr: 0x100002F48, symSize: 0x24 }
  - { offsetInCU: 0x7A99, offset: 0x7A99, size: 0x8, addend: 0x0, symName: __ZNSt3__13getB8ue170006ILm0EJRKiEEERNS_13tuple_elementIXT_ENS_5tupleIJDpT0_EEEE4typeERS7_, symObjAddr: 0x2148, symBinAddr: 0x1000031C4, symSize: 0x24 }
  - { offsetInCU: 0x7ADC, offset: 0x7ADC, size: 0x8, addend: 0x0, symName: __ZNSt3__127__tree_balance_after_insertB8ue170006IPNS_16__tree_node_baseIPvEEEEvT_S5_, symObjAddr: 0x21F8, symBinAddr: 0x100003274, symSize: 0x32C }
  - { offsetInCU: 0x7B58, offset: 0x7B58, size: 0x8, addend: 0x0, symName: __ZNSt3__120__tree_is_left_childB8ue170006IPNS_16__tree_node_baseIPvEEEEbT_, symObjAddr: 0x2564, symBinAddr: 0x1000035E0, symSize: 0x2C }
  - { offsetInCU: 0x7B8D, offset: 0x7B8D, size: 0x8, addend: 0x0, symName: __ZNSt3__118__tree_left_rotateB8ue170006IPNS_16__tree_node_baseIPvEEEEvT_, symObjAddr: 0x2590, symBinAddr: 0x10000360C, symSize: 0xD8 }
  - { offsetInCU: 0x7BCF, offset: 0x7BCF, size: 0x8, addend: 0x0, symName: __ZNSt3__119__tree_right_rotateB8ue170006IPNS_16__tree_node_baseIPvEEEEvT_, symObjAddr: 0x2668, symBinAddr: 0x1000036E4, symSize: 0xCC }
  - { offsetInCU: 0x7D00, offset: 0x7D00, size: 0x8, addend: 0x0, symName: __ZSt28__throw_bad_array_new_lengthB8ue170006v, symObjAddr: 0x1E58, symBinAddr: 0x100002ED4, symSize: 0x34 }
  - { offsetInCU: 0x8166, offset: 0x8166, size: 0x8, addend: 0x0, symName: _N, symObjAddr: 0x2BCB8, symBinAddr: 0x100008018, symSize: 0x0 }
  - { offsetInCU: 0xA734, offset: 0xA734, size: 0x8, addend: 0x0, symName: __ZNSt3__13mapIi4starNS_4lessIiEENS_9allocatorINS_4pairIKiS1_EEEEEC1B8ue170006Ev, symObjAddr: 0x0, symBinAddr: 0x10000107C, symSize: 0x2C }
  - { offsetInCU: 0xA75E, offset: 0xA75E, size: 0x8, addend: 0x0, symName: __ZNSt3__13mapIi4starNS_4lessIiEENS_9allocatorINS_4pairIKiS1_EEEEED1B8ue170006Ev, symObjAddr: 0x2C, symBinAddr: 0x1000010A8, symSize: 0x2C }
  - { offsetInCU: 0xA788, offset: 0xA788, size: 0x8, addend: 0x0, symName: __Z8preorderi, symObjAddr: 0x58, symBinAddr: 0x1000010D4, symSize: 0x88 }
  - { offsetInCU: 0xA7B1, offset: 0xA7B1, size: 0x8, addend: 0x0, symName: __ZNSt3__13mapIi4starNS_4lessIiEENS_9allocatorINS_4pairIKiS1_EEEEEixERS6_, symObjAddr: 0x114, symBinAddr: 0x100001190, symSize: 0x80 }
  - { offsetInCU: 0xA7E8, offset: 0xA7E8, size: 0x8, addend: 0x0, symName: __Z7inorderi, symObjAddr: 0x194, symBinAddr: 0x100001210, symSize: 0x84 }
  - { offsetInCU: 0xA811, offset: 0xA811, size: 0x8, addend: 0x0, symName: __Z9postorderi, symObjAddr: 0x218, symBinAddr: 0x100001294, symSize: 0x84 }
  - { offsetInCU: 0xA83A, offset: 0xA83A, size: 0x8, addend: 0x0, symName: _main, symObjAddr: 0x29C, symBinAddr: 0x100001318, symSize: 0x114 }
  - { offsetInCU: 0xA89F, offset: 0xA89F, size: 0x8, addend: 0x0, symName: __ZNSt3__13mapIi4starNS_4lessIiEENS_9allocatorINS_4pairIKiS1_EEEEEC2B8ue170006Ev, symObjAddr: 0x3B0, symBinAddr: 0x10000142C, symSize: 0x40 }
  - { offsetInCU: 0xA8C9, offset: 0xA8C9, size: 0x8, addend: 0x0, symName: __ZNSt3__119__map_value_compareIiNS_12__value_typeIi4starEENS_4lessIiEELb1EEC1B8ue170006ES5_, symObjAddr: 0x3F0, symBinAddr: 0x10000146C, symSize: 0x2C }
  - { offsetInCU: 0xA902, offset: 0xA902, size: 0x8, addend: 0x0, symName: __ZNSt3__16__treeINS_12__value_typeIi4starEENS_19__map_value_compareIiS3_NS_4lessIiEELb1EEENS_9allocatorIS3_EEEC1ERKS7_, symObjAddr: 0x41C, symBinAddr: 0x100001498, symSize: 0x34 }
  - { offsetInCU: 0xA93D, offset: 0xA93D, size: 0x8, addend: 0x0, symName: __ZNSt3__119__map_value_compareIiNS_12__value_typeIi4starEENS_4lessIiEELb1EEC2B8ue170006ES5_, symObjAddr: 0x450, symBinAddr: 0x1000014CC, symSize: 0x14 }
  - { offsetInCU: 0xA976, offset: 0xA976, size: 0x8, addend: 0x0, symName: __ZNSt3__16__treeINS_12__value_typeIi4starEENS_19__map_value_compareIiS3_NS_4lessIiEELb1EEENS_9allocatorIS3_EEEC2ERKS7_, symObjAddr: 0x464, symBinAddr: 0x1000014E0, symSize: 0x7C }
  - { offsetInCU: 0xA9B1, offset: 0xA9B1, size: 0x8, addend: 0x0, symName: __ZNSt3__117__compressed_pairINS_15__tree_end_nodeIPNS_16__tree_node_baseIPvEEEENS_9allocatorINS_11__tree_nodeINS_12__value_typeIi4starEES3_EEEEEC1B8ue170006ILb1EvEEv, symObjAddr: 0x4E0, symBinAddr: 0x10000155C, symSize: 0x2C }
  - { offsetInCU: 0xA9EB, offset: 0xA9EB, size: 0x8, addend: 0x0, symName: __ZNSt3__117__compressed_pairImNS_19__map_value_compareIiNS_12__value_typeIi4starEENS_4lessIiEELb1EEEEC1B8ue170006IiRKS7_EEOT_OT0_, symObjAddr: 0x518, symBinAddr: 0x100001594, symSize: 0x3C }
  - { offsetInCU: 0xAA43, offset: 0xAA43, size: 0x8, addend: 0x0, symName: __ZNSt3__16__treeINS_12__value_typeIi4starEENS_19__map_value_compareIiS3_NS_4lessIiEELb1EEENS_9allocatorIS3_EEE10__end_nodeB8ue170006Ev, symObjAddr: 0x554, symBinAddr: 0x1000015D0, symSize: 0x2C }
  - { offsetInCU: 0xAA69, offset: 0xAA69, size: 0x8, addend: 0x0, symName: __ZNSt3__16__treeINS_12__value_typeIi4starEENS_19__map_value_compareIiS3_NS_4lessIiEELb1EEENS_9allocatorIS3_EEE12__begin_nodeB8ue170006Ev, symObjAddr: 0x580, symBinAddr: 0x1000015FC, symSize: 0x14 }
  - { offsetInCU: 0xAA8F, offset: 0xAA8F, size: 0x8, addend: 0x0, symName: __ZNSt3__117__compressed_pairINS_15__tree_end_nodeIPNS_16__tree_node_baseIPvEEEENS_9allocatorINS_11__tree_nodeINS_12__value_typeIi4starEES3_EEEEEC2B8ue170006ILb1EvEEv, symObjAddr: 0x594, symBinAddr: 0x100001610, symSize: 0x34 }
  - { offsetInCU: 0xAAC4, offset: 0xAAC4, size: 0x8, addend: 0x0, symName: __ZNSt3__122__compressed_pair_elemINS_15__tree_end_nodeIPNS_16__tree_node_baseIPvEEEELi0ELb0EEC2B8ue170006ENS_16__value_init_tagE, symObjAddr: 0x5C8, symBinAddr: 0x100001644, symSize: 0x2C }
  - { offsetInCU: 0xAAF9, offset: 0xAAF9, size: 0x8, addend: 0x0, symName: __ZNSt3__122__compressed_pair_elemINS_9allocatorINS_11__tree_nodeINS_12__value_typeIi4starEEPvEEEELi1ELb1EEC2B8ue170006ENS_16__value_init_tagE, symObjAddr: 0x5F4, symBinAddr: 0x100001670, symSize: 0x2C }
  - { offsetInCU: 0xAB2E, offset: 0xAB2E, size: 0x8, addend: 0x0, symName: __ZNSt3__115__tree_end_nodeIPNS_16__tree_node_baseIPvEEEC1B8ue170006Ev, symObjAddr: 0x620, symBinAddr: 0x10000169C, symSize: 0x2C }
  - { offsetInCU: 0xAB58, offset: 0xAB58, size: 0x8, addend: 0x0, symName: __ZNSt3__115__tree_end_nodeIPNS_16__tree_node_baseIPvEEEC2B8ue170006Ev, symObjAddr: 0x64C, symBinAddr: 0x1000016C8, symSize: 0x18 }
  - { offsetInCU: 0xAB82, offset: 0xAB82, size: 0x8, addend: 0x0, symName: __ZNSt3__19allocatorINS_11__tree_nodeINS_12__value_typeIi4starEEPvEEEC2B8ue170006Ev, symObjAddr: 0x664, symBinAddr: 0x1000016E0, symSize: 0x2C }
  - { offsetInCU: 0xABAC, offset: 0xABAC, size: 0x8, addend: 0x0, symName: __ZNSt3__116__non_trivial_ifILb1ENS_9allocatorINS_11__tree_nodeINS_12__value_typeIi4starEEPvEEEEEC2B8ue170006Ev, symObjAddr: 0x690, symBinAddr: 0x10000170C, symSize: 0x14 }
  - { offsetInCU: 0xABD6, offset: 0xABD6, size: 0x8, addend: 0x0, symName: __ZNSt3__117__compressed_pairImNS_19__map_value_compareIiNS_12__value_typeIi4starEENS_4lessIiEELb1EEEEC2B8ue170006IiRKS7_EEOT_OT0_, symObjAddr: 0x6A4, symBinAddr: 0x100001720, symSize: 0x44 }
  - { offsetInCU: 0xAC2E, offset: 0xAC2E, size: 0x8, addend: 0x0, symName: __ZNSt3__122__compressed_pair_elemImLi0ELb0EEC2B8ue170006IivEEOT_, symObjAddr: 0x6E8, symBinAddr: 0x100001764, symSize: 0x24 }
  - { offsetInCU: 0xAC70, offset: 0xAC70, size: 0x8, addend: 0x0, symName: __ZNSt3__122__compressed_pair_elemINS_19__map_value_compareIiNS_12__value_typeIi4starEENS_4lessIiEELb1EEELi1ELb1EEC2B8ue170006IRKS7_vEEOT_, symObjAddr: 0x70C, symBinAddr: 0x100001788, symSize: 0x18 }
  - { offsetInCU: 0xACB2, offset: 0xACB2, size: 0x8, addend: 0x0, symName: __ZNSt3__114pointer_traitsIPNS_15__tree_end_nodeIPNS_16__tree_node_baseIPvEEEEE10pointer_toB8ue170006ERS6_, symObjAddr: 0x724, symBinAddr: 0x1000017A0, symSize: 0x14 }
  - { offsetInCU: 0xACD5, offset: 0xACD5, size: 0x8, addend: 0x0, symName: __ZNSt3__117__compressed_pairINS_15__tree_end_nodeIPNS_16__tree_node_baseIPvEEEENS_9allocatorINS_11__tree_nodeINS_12__value_typeIi4starEES3_EEEEE5firstB8ue170006Ev, symObjAddr: 0x738, symBinAddr: 0x1000017B4, symSize: 0x24 }
  - { offsetInCU: 0xACFB, offset: 0xACFB, size: 0x8, addend: 0x0, symName: __ZNSt3__122__compressed_pair_elemINS_15__tree_end_nodeIPNS_16__tree_node_baseIPvEEEELi0ELb0EE5__getB8ue170006Ev, symObjAddr: 0x75C, symBinAddr: 0x1000017D8, symSize: 0x14 }
  - { offsetInCU: 0xAD21, offset: 0xAD21, size: 0x8, addend: 0x0, symName: __ZNSt3__13mapIi4starNS_4lessIiEENS_9allocatorINS_4pairIKiS1_EEEEED2B8ue170006Ev, symObjAddr: 0x770, symBinAddr: 0x1000017EC, symSize: 0x2C }
  - { offsetInCU: 0xAD4B, offset: 0xAD4B, size: 0x8, addend: 0x0, symName: __ZNSt3__16__treeINS_12__value_typeIi4starEENS_19__map_value_compareIiS3_NS_4lessIiEELb1EEENS_9allocatorIS3_EEED1Ev, symObjAddr: 0x79C, symBinAddr: 0x100001818, symSize: 0x2C }
  - { offsetInCU: 0xAD77, offset: 0xAD77, size: 0x8, addend: 0x0, symName: __ZNSt3__16__treeINS_12__value_typeIi4starEENS_19__map_value_compareIiS3_NS_4lessIiEELb1EEENS_9allocatorIS3_EEED2Ev, symObjAddr: 0x7C8, symBinAddr: 0x100001844, symSize: 0x38 }
  - { offsetInCU: 0xADA3, offset: 0xADA3, size: 0x8, addend: 0x0, symName: __ZNSt3__16__treeINS_12__value_typeIi4starEENS_19__map_value_compareIiS3_NS_4lessIiEELb1EEENS_9allocatorIS3_EEE7destroyEPNS_11__tree_nodeIS3_PvEE, symObjAddr: 0x800, symBinAddr: 0x10000187C, symSize: 0xAC }
  - { offsetInCU: 0xADEF, offset: 0xADEF, size: 0x8, addend: 0x0, symName: __ZNKSt3__16__treeINS_12__value_typeIi4starEENS_19__map_value_compareIiS3_NS_4lessIiEELb1EEENS_9allocatorIS3_EEE6__rootB8ue170006Ev, symObjAddr: 0x8AC, symBinAddr: 0x100001928, symSize: 0x28 }
  - { offsetInCU: 0xAE15, offset: 0xAE15, size: 0x8, addend: 0x0, symName: __ZNSt3__16__treeINS_12__value_typeIi4starEENS_19__map_value_compareIiS3_NS_4lessIiEELb1EEENS_9allocatorIS3_EEE12__node_allocB8ue170006Ev, symObjAddr: 0x8D4, symBinAddr: 0x100001950, symSize: 0x28 }
  - { offsetInCU: 0xAE3B, offset: 0xAE3B, size: 0x8, addend: 0x0, symName: __ZNSt3__116allocator_traitsINS_9allocatorINS_11__tree_nodeINS_12__value_typeIi4starEEPvEEEEE7destroyB8ue170006INS_4pairIKiS4_EEvvEEvRS8_PT_, symObjAddr: 0x8FC, symBinAddr: 0x100001978, symSize: 0x14 }
  - { offsetInCU: 0xAE76, offset: 0xAE76, size: 0x8, addend: 0x0, symName: __ZNSt3__122__tree_key_value_typesINS_12__value_typeIi4starEEE9__get_ptrB8ue170006ERS3_, symObjAddr: 0x910, symBinAddr: 0x10000198C, symSize: 0x24 }
  - { offsetInCU: 0xAE9A, offset: 0xAE9A, size: 0x8, addend: 0x0, symName: __ZNSt3__116allocator_traitsINS_9allocatorINS_11__tree_nodeINS_12__value_typeIi4starEEPvEEEEE10deallocateB8ue170006ERS8_PS7_m, symObjAddr: 0x934, symBinAddr: 0x1000019B0, symSize: 0x34 }
  - { offsetInCU: 0xAEDC, offset: 0xAEDC, size: 0x8, addend: 0x0, symName: __ZNSt3__117__compressed_pairINS_15__tree_end_nodeIPNS_16__tree_node_baseIPvEEEENS_9allocatorINS_11__tree_nodeINS_12__value_typeIi4starEES3_EEEEE6secondB8ue170006Ev, symObjAddr: 0x968, symBinAddr: 0x1000019E4, symSize: 0x24 }
  - { offsetInCU: 0xAF02, offset: 0xAF02, size: 0x8, addend: 0x0, symName: __ZNSt3__122__compressed_pair_elemINS_9allocatorINS_11__tree_nodeINS_12__value_typeIi4starEEPvEEEELi1ELb1EE5__getB8ue170006Ev, symObjAddr: 0x98C, symBinAddr: 0x100001A08, symSize: 0x14 }
  - { offsetInCU: 0xAF28, offset: 0xAF28, size: 0x8, addend: 0x0, symName: __ZNSt3__112__value_typeIi4starE11__get_valueB8ue170006Ev, symObjAddr: 0x9A0, symBinAddr: 0x100001A1C, symSize: 0x14 }
  - { offsetInCU: 0xAF4E, offset: 0xAF4E, size: 0x8, addend: 0x0, symName: __ZNSt3__19allocatorINS_11__tree_nodeINS_12__value_typeIi4starEEPvEEE10deallocateB8ue170006EPS6_m, symObjAddr: 0x9B4, symBinAddr: 0x100001A30, symSize: 0x44 }
  - { offsetInCU: 0xAF90, offset: 0xAF90, size: 0x8, addend: 0x0, symName: __ZNKSt3__16__treeINS_12__value_typeIi4starEENS_19__map_value_compareIiS3_NS_4lessIiEELb1EEENS_9allocatorIS3_EEE10__end_nodeB8ue170006Ev, symObjAddr: 0xA74, symBinAddr: 0x100001AF0, symSize: 0x2C }
  - { offsetInCU: 0xAFB6, offset: 0xAFB6, size: 0x8, addend: 0x0, symName: __ZNKSt3__117__compressed_pairINS_15__tree_end_nodeIPNS_16__tree_node_baseIPvEEEENS_9allocatorINS_11__tree_nodeINS_12__value_typeIi4starEES3_EEEEE5firstB8ue170006Ev, symObjAddr: 0xAA0, symBinAddr: 0x100001B1C, symSize: 0x24 }
  - { offsetInCU: 0xAFDC, offset: 0xAFDC, size: 0x8, addend: 0x0, symName: __ZNKSt3__122__compressed_pair_elemINS_15__tree_end_nodeIPNS_16__tree_node_baseIPvEEEELi0ELb0EE5__getB8ue170006Ev, symObjAddr: 0xAC4, symBinAddr: 0x100001B40, symSize: 0x14 }
  - { offsetInCU: 0xB020, offset: 0xB020, size: 0x8, addend: 0x0, symName: __ZNKSt3__113basic_ostreamIcNS_11char_traitsIcEEE6sentrycvbB8ue170006Ev, symObjAddr: 0xCC4, symBinAddr: 0x100001D40, symSize: 0x1C }
  - { offsetInCU: 0xB046, offset: 0xB046, size: 0x8, addend: 0x0, symName: __ZNSt3__119ostreambuf_iteratorIcNS_11char_traitsIcEEEC1B8ue170006ERNS_13basic_ostreamIcS2_EE, symObjAddr: 0xF20, symBinAddr: 0x100001F9C, symSize: 0x34 }
  - { offsetInCU: 0xB07E, offset: 0xB07E, size: 0x8, addend: 0x0, symName: __ZNKSt3__18ios_base5flagsB8ue170006Ev, symObjAddr: 0xF54, symBinAddr: 0x100001FD0, symSize: 0x18 }
  - { offsetInCU: 0xB0A6, offset: 0xB0A6, size: 0x8, addend: 0x0, symName: __ZNKSt3__19basic_iosIcNS_11char_traitsIcEEE4fillB8ue170006Ev, symObjAddr: 0xF6C, symBinAddr: 0x100001FE8, symSize: 0x64 }
  - { offsetInCU: 0xB0CE, offset: 0xB0CE, size: 0x8, addend: 0x0, symName: __ZNKSt3__119ostreambuf_iteratorIcNS_11char_traitsIcEEE6failedB8ue170006Ev, symObjAddr: 0xFD0, symBinAddr: 0x10000204C, symSize: 0x24 }
  - { offsetInCU: 0xB0F4, offset: 0xB0F4, size: 0x8, addend: 0x0, symName: __ZNSt3__19basic_iosIcNS_11char_traitsIcEEE8setstateB8ue170006Ej, symObjAddr: 0xFF4, symBinAddr: 0x100002070, symSize: 0x2C }
  - { offsetInCU: 0xB129, offset: 0xB129, size: 0x8, addend: 0x0, symName: __ZNKSt3__18ios_base5widthB8ue170006Ev, symObjAddr: 0x1020, symBinAddr: 0x10000209C, symSize: 0x18 }
  - { offsetInCU: 0xB151, offset: 0xB151, size: 0x8, addend: 0x0, symName: __ZNSt3__115basic_streambufIcNS_11char_traitsIcEEE5sputnB8ue170006EPKcl, symObjAddr: 0x1038, symBinAddr: 0x1000020B4, symSize: 0x3C }
  - { offsetInCU: 0xB193, offset: 0xB193, size: 0x8, addend: 0x0, symName: __ZNSt3__112basic_stringIcNS_11char_traitsIcEENS_9allocatorIcEEEC1B8ue170006Emc, symObjAddr: 0x1074, symBinAddr: 0x1000020F0, symSize: 0x3C }
  - { offsetInCU: 0xB1DB, offset: 0xB1DB, size: 0x8, addend: 0x0, symName: __ZNKSt3__112basic_stringIcNS_11char_traitsIcEENS_9allocatorIcEEE4dataB8ue170006Ev, symObjAddr: 0x10B0, symBinAddr: 0x10000212C, symSize: 0x28 }
  - { offsetInCU: 0xB201, offset: 0xB201, size: 0x8, addend: 0x0, symName: __ZNSt3__18ios_base5widthB8ue170006El, symObjAddr: 0x10D8, symBinAddr: 0x100002154, symSize: 0x2C }
  - { offsetInCU: 0xB247, offset: 0xB247, size: 0x8, addend: 0x0, symName: __ZNSt3__112basic_stringIcNS_11char_traitsIcEENS_9allocatorIcEEEC2B8ue170006Emc, symObjAddr: 0x1104, symBinAddr: 0x100002180, symSize: 0x4C }
  - { offsetInCU: 0xB294, offset: 0xB294, size: 0x8, addend: 0x0, symName: __ZNSt3__117__compressed_pairINS_12basic_stringIcNS_11char_traitsIcEENS_9allocatorIcEEE5__repES5_EC1B8ue170006INS_18__default_init_tagESA_EEOT_OT0_, symObjAddr: 0x1150, symBinAddr: 0x1000021CC, symSize: 0x3C }
  - { offsetInCU: 0xB2EC, offset: 0xB2EC, size: 0x8, addend: 0x0, symName: __ZNSt3__117__compressed_pairINS_12basic_stringIcNS_11char_traitsIcEENS_9allocatorIcEEE5__repES5_EC2B8ue170006INS_18__default_init_tagESA_EEOT_OT0_, symObjAddr: 0x118C, symBinAddr: 0x100002208, symSize: 0x3C }
  - { offsetInCU: 0xB344, offset: 0xB344, size: 0x8, addend: 0x0, symName: __ZNSt3__122__compressed_pair_elemINS_12basic_stringIcNS_11char_traitsIcEENS_9allocatorIcEEE5__repELi0ELb0EEC2B8ue170006ENS_18__default_init_tagE, symObjAddr: 0x11C8, symBinAddr: 0x100002244, symSize: 0x14 }
  - { offsetInCU: 0xB379, offset: 0xB379, size: 0x8, addend: 0x0, symName: __ZNSt3__122__compressed_pair_elemINS_9allocatorIcEELi1ELb1EEC2B8ue170006ENS_18__default_init_tagE, symObjAddr: 0x11DC, symBinAddr: 0x100002258, symSize: 0x2C }
  - { offsetInCU: 0xB3AE, offset: 0xB3AE, size: 0x8, addend: 0x0, symName: __ZNSt3__19allocatorIcEC2B8ue170006Ev, symObjAddr: 0x1208, symBinAddr: 0x100002284, symSize: 0x2C }
  - { offsetInCU: 0xB3D8, offset: 0xB3D8, size: 0x8, addend: 0x0, symName: __ZNSt3__116__non_trivial_ifILb1ENS_9allocatorIcEEEC2B8ue170006Ev, symObjAddr: 0x1234, symBinAddr: 0x1000022B0, symSize: 0x14 }
  - { offsetInCU: 0xB402, offset: 0xB402, size: 0x8, addend: 0x0, symName: __ZNKSt3__112basic_stringIcNS_11char_traitsIcEENS_9allocatorIcEEE13__get_pointerB8ue170006Ev, symObjAddr: 0x125C, symBinAddr: 0x1000022D8, symSize: 0x54 }
  - { offsetInCU: 0xB428, offset: 0xB428, size: 0x8, addend: 0x0, symName: __ZNKSt3__112basic_stringIcNS_11char_traitsIcEENS_9allocatorIcEEE9__is_longB8ue170006Ev, symObjAddr: 0x12B0, symBinAddr: 0x10000232C, symSize: 0x38 }
  - { offsetInCU: 0xB44E, offset: 0xB44E, size: 0x8, addend: 0x0, symName: __ZNKSt3__112basic_stringIcNS_11char_traitsIcEENS_9allocatorIcEEE18__get_long_pointerB8ue170006Ev, symObjAddr: 0x12E8, symBinAddr: 0x100002364, symSize: 0x28 }
  - { offsetInCU: 0xB474, offset: 0xB474, size: 0x8, addend: 0x0, symName: __ZNKSt3__112basic_stringIcNS_11char_traitsIcEENS_9allocatorIcEEE19__get_short_pointerB8ue170006Ev, symObjAddr: 0x1310, symBinAddr: 0x10000238C, symSize: 0x28 }
  - { offsetInCU: 0xB49A, offset: 0xB49A, size: 0x8, addend: 0x0, symName: __ZNKSt3__117__compressed_pairINS_12basic_stringIcNS_11char_traitsIcEENS_9allocatorIcEEE5__repES5_E5firstB8ue170006Ev, symObjAddr: 0x1338, symBinAddr: 0x1000023B4, symSize: 0x24 }
  - { offsetInCU: 0xB4C0, offset: 0xB4C0, size: 0x8, addend: 0x0, symName: __ZNKSt3__122__compressed_pair_elemINS_12basic_stringIcNS_11char_traitsIcEENS_9allocatorIcEEE5__repELi0ELb0EE5__getB8ue170006Ev, symObjAddr: 0x135C, symBinAddr: 0x1000023D8, symSize: 0x14 }
  - { offsetInCU: 0xB4E6, offset: 0xB4E6, size: 0x8, addend: 0x0, symName: __ZNSt3__114pointer_traitsIPKcE10pointer_toB8ue170006ERS1_, symObjAddr: 0x1370, symBinAddr: 0x1000023EC, symSize: 0x14 }
  - { offsetInCU: 0xB509, offset: 0xB509, size: 0x8, addend: 0x0, symName: __ZNSt3__119ostreambuf_iteratorIcNS_11char_traitsIcEEEC2B8ue170006ERNS_13basic_ostreamIcS2_EE, symObjAddr: 0x1384, symBinAddr: 0x100002400, symSize: 0x54 }
  - { offsetInCU: 0xB541, offset: 0xB541, size: 0x8, addend: 0x0, symName: __ZNKSt3__19basic_iosIcNS_11char_traitsIcEEE5rdbufB8ue170006Ev, symObjAddr: 0x13D8, symBinAddr: 0x100002454, symSize: 0x24 }
  - { offsetInCU: 0xB569, offset: 0xB569, size: 0x8, addend: 0x0, symName: __ZNKSt3__18ios_base5rdbufB8ue170006Ev, symObjAddr: 0x13FC, symBinAddr: 0x100002478, symSize: 0x18 }
  - { offsetInCU: 0xB58F, offset: 0xB58F, size: 0x8, addend: 0x0, symName: __ZNSt3__111char_traitsIcE11eq_int_typeB8ue170006Eii, symObjAddr: 0x1414, symBinAddr: 0x100002490, symSize: 0x28 }
  - { offsetInCU: 0xB5C2, offset: 0xB5C2, size: 0x8, addend: 0x0, symName: __ZNSt3__111char_traitsIcE3eofB8ue170006Ev, symObjAddr: 0x143C, symBinAddr: 0x1000024B8, symSize: 0x8 }
  - { offsetInCU: 0xB5D6, offset: 0xB5D6, size: 0x8, addend: 0x0, symName: __ZNKSt3__19basic_iosIcNS_11char_traitsIcEEE5widenB8ue170006Ec, symObjAddr: 0x1444, symBinAddr: 0x1000024C0, symSize: 0x84 }
  - { offsetInCU: 0xB644, offset: 0xB644, size: 0x8, addend: 0x0, symName: __ZNKSt3__15ctypeIcE5widenB8ue170006Ec, symObjAddr: 0x14F4, symBinAddr: 0x100002570, symSize: 0x38 }
  - { offsetInCU: 0xB679, offset: 0xB679, size: 0x8, addend: 0x0, symName: __ZNSt3__18ios_base8setstateB8ue170006Ej, symObjAddr: 0x152C, symBinAddr: 0x1000025A8, symSize: 0x34 }
  - { offsetInCU: 0xB6C4, offset: 0xB6C4, size: 0x8, addend: 0x0, symName: __ZNSt3__16__treeINS_12__value_typeIi4starEENS_19__map_value_compareIiS3_NS_4lessIiEELb1EEENS_9allocatorIS3_EEE25__emplace_unique_key_argsIiJRKNS_21piecewise_construct_tENS_5tupleIJRKiEEENSF_IJEEEEEENS_4pairINS_15__tree_iteratorIS3_PNS_11__tree_nodeIS3_PvEElEEbEERKT_DpOT0_, symObjAddr: 0x1560, symBinAddr: 0x1000025DC, symSize: 0x100 }
  - { offsetInCU: 0xB79A, offset: 0xB79A, size: 0x8, addend: 0x0, symName: __ZNKSt3__115__tree_iteratorINS_12__value_typeIi4starEEPNS_11__tree_nodeIS3_PvEElEptB8ue170006Ev, symObjAddr: 0x1690, symBinAddr: 0x10000270C, symSize: 0x2C }
  - { offsetInCU: 0xB7C0, offset: 0xB7C0, size: 0x8, addend: 0x0, symName: __ZNSt3__16__treeINS_12__value_typeIi4starEENS_19__map_value_compareIiS3_NS_4lessIiEELb1EEENS_9allocatorIS3_EEE12__find_equalIiEERPNS_16__tree_node_baseIPvEERPNS_15__tree_end_nodeISF_EERKT_, symObjAddr: 0x16BC, symBinAddr: 0x100002738, symSize: 0x184 }
  - { offsetInCU: 0xB82D, offset: 0xB82D, size: 0x8, addend: 0x0, symName: __ZNSt3__16__treeINS_12__value_typeIi4starEENS_19__map_value_compareIiS3_NS_4lessIiEELb1EEENS_9allocatorIS3_EEE16__construct_nodeIJRKNS_21piecewise_construct_tENS_5tupleIJRKiEEENSF_IJEEEEEENS_10unique_ptrINS_11__tree_nodeIS3_PvEENS_22__tree_node_destructorINS8_ISN_EEEEEEDpOT_, symObjAddr: 0x1840, symBinAddr: 0x1000028BC, symSize: 0x120 }
  - { offsetInCU: 0xB8B6, offset: 0xB8B6, size: 0x8, addend: 0x0, symName: __ZNSt3__16__treeINS_12__value_typeIi4starEENS_19__map_value_compareIiS3_NS_4lessIiEELb1EEENS_9allocatorIS3_EEE16__insert_node_atEPNS_15__tree_end_nodeIPNS_16__tree_node_baseIPvEEEERSF_SF_, symObjAddr: 0x1960, symBinAddr: 0x1000029DC, symSize: 0xCC }
  - { offsetInCU: 0xB90B, offset: 0xB90B, size: 0x8, addend: 0x0, symName: __ZNKSt3__110unique_ptrINS_11__tree_nodeINS_12__value_typeIi4starEEPvEENS_22__tree_node_destructorINS_9allocatorIS6_EEEEE3getB8ue170006Ev, symObjAddr: 0x1A2C, symBinAddr: 0x100002AA8, symSize: 0x28 }
  - { offsetInCU: 0xB931, offset: 0xB931, size: 0x8, addend: 0x0, symName: __ZNSt3__110unique_ptrINS_11__tree_nodeINS_12__value_typeIi4starEEPvEENS_22__tree_node_destructorINS_9allocatorIS6_EEEEE7releaseB8ue170006Ev, symObjAddr: 0x1A54, symBinAddr: 0x100002AD0, symSize: 0x44 }
  - { offsetInCU: 0xB966, offset: 0xB966, size: 0x8, addend: 0x0, symName: __ZNSt3__110unique_ptrINS_11__tree_nodeINS_12__value_typeIi4starEEPvEENS_22__tree_node_destructorINS_9allocatorIS6_EEEEED1B8ue170006Ev, symObjAddr: 0x1A98, symBinAddr: 0x100002B14, symSize: 0x2C }
  - { offsetInCU: 0xB990, offset: 0xB990, size: 0x8, addend: 0x0, symName: __ZNSt3__115__tree_iteratorINS_12__value_typeIi4starEEPNS_11__tree_nodeIS3_PvEElEC1B8ue170006ES7_, symObjAddr: 0x1AC4, symBinAddr: 0x100002B40, symSize: 0x34 }
  - { offsetInCU: 0xB9D3, offset: 0xB9D3, size: 0x8, addend: 0x0, symName: __ZNSt3__14pairINS_15__tree_iteratorINS_12__value_typeIi4starEEPNS_11__tree_nodeIS4_PvEElEEbEC1B8ue170006IS9_RbLS6_0EEEOT_OT0_, symObjAddr: 0x1AF8, symBinAddr: 0x100002B74, symSize: 0x3C }
  - { offsetInCU: 0xBA31, offset: 0xBA31, size: 0x8, addend: 0x0, symName: __ZNKSt3__16__treeINS_12__value_typeIi4starEENS_19__map_value_compareIiS3_NS_4lessIiEELb1EEENS_9allocatorIS3_EEE10__root_ptrB8ue170006Ev, symObjAddr: 0x1B34, symBinAddr: 0x100002BB0, symSize: 0x24 }
  - { offsetInCU: 0xBA57, offset: 0xBA57, size: 0x8, addend: 0x0, symName: __ZNSt3__16__treeINS_12__value_typeIi4starEENS_19__map_value_compareIiS3_NS_4lessIiEELb1EEENS_9allocatorIS3_EEE10value_compB8ue170006Ev, symObjAddr: 0x1B58, symBinAddr: 0x100002BD4, symSize: 0x28 }
  - { offsetInCU: 0xBA7D, offset: 0xBA7D, size: 0x8, addend: 0x0, symName: __ZNKSt3__119__map_value_compareIiNS_12__value_typeIi4starEENS_4lessIiEELb1EEclB8ue170006ERKiRKS3_, symObjAddr: 0x1B80, symBinAddr: 0x100002BFC, symSize: 0x50 }
  - { offsetInCU: 0xBAC1, offset: 0xBAC1, size: 0x8, addend: 0x0, symName: __ZNKSt3__119__map_value_compareIiNS_12__value_typeIi4starEENS_4lessIiEELb1EEclB8ue170006ERKS3_RKi, symObjAddr: 0x1BD0, symBinAddr: 0x100002C4C, symSize: 0x48 }
  - { offsetInCU: 0xBB05, offset: 0xBB05, size: 0x8, addend: 0x0, symName: __ZNSt3__117__compressed_pairImNS_19__map_value_compareIiNS_12__value_typeIi4starEENS_4lessIiEELb1EEEE6secondB8ue170006Ev, symObjAddr: 0x1C18, symBinAddr: 0x100002C94, symSize: 0x24 }
  - { offsetInCU: 0xBB2B, offset: 0xBB2B, size: 0x8, addend: 0x0, symName: __ZNSt3__122__compressed_pair_elemINS_19__map_value_compareIiNS_12__value_typeIi4starEENS_4lessIiEELb1EEELi1ELb1EE5__getB8ue170006Ev, symObjAddr: 0x1C3C, symBinAddr: 0x100002CB8, symSize: 0x14 }
  - { offsetInCU: 0xBB51, offset: 0xBB51, size: 0x8, addend: 0x0, symName: __ZNKSt3__14lessIiEclB8ue170006ERKiS3_, symObjAddr: 0x1C50, symBinAddr: 0x100002CCC, symSize: 0x34 }
  - { offsetInCU: 0xBB95, offset: 0xBB95, size: 0x8, addend: 0x0, symName: __ZNKSt3__112__value_typeIi4starE11__get_valueB8ue170006Ev, symObjAddr: 0x1C84, symBinAddr: 0x100002D00, symSize: 0x14 }
  - { offsetInCU: 0xBBBB, offset: 0xBBBB, size: 0x8, addend: 0x0, symName: __ZNSt3__116allocator_traitsINS_9allocatorINS_11__tree_nodeINS_12__value_typeIi4starEEPvEEEEE8allocateB8ue170006ERS8_m, symObjAddr: 0x1C98, symBinAddr: 0x100002D14, symSize: 0x2C }
  - { offsetInCU: 0xBBEE, offset: 0xBBEE, size: 0x8, addend: 0x0, symName: __ZNSt3__122__tree_node_destructorINS_9allocatorINS_11__tree_nodeINS_12__value_typeIi4starEEPvEEEEEC1B8ue170006ERS8_b, symObjAddr: 0x1CC4, symBinAddr: 0x100002D40, symSize: 0x48 }
  - { offsetInCU: 0xBC3B, offset: 0xBC3B, size: 0x8, addend: 0x0, symName: __ZNSt3__110unique_ptrINS_11__tree_nodeINS_12__value_typeIi4starEEPvEENS_22__tree_node_destructorINS_9allocatorIS6_EEEEEC1B8ue170006ILb1EvEEPS6_NS_16__dependent_typeINS_27__unique_ptr_deleter_sfinaeISA_EEXT_EE20__good_rval_ref_typeE, symObjAddr: 0x1D0C, symBinAddr: 0x100002D88, symSize: 0x3C }
  - { offsetInCU: 0xBC8C, offset: 0xBC8C, size: 0x8, addend: 0x0, symName: __ZNSt3__116allocator_traitsINS_9allocatorINS_11__tree_nodeINS_12__value_typeIi4starEEPvEEEEE9constructB8ue170006INS_4pairIKiS4_EEJRKNS_21piecewise_construct_tENS_5tupleIJRSC_EEENSH_IJEEEEvEEvRS8_PT_DpOT0_, symObjAddr: 0x1D48, symBinAddr: 0x100002DC4, symSize: 0x44 }
  - { offsetInCU: 0xBD0B, offset: 0xBD0B, size: 0x8, addend: 0x0, symName: __ZNKSt3__110unique_ptrINS_11__tree_nodeINS_12__value_typeIi4starEEPvEENS_22__tree_node_destructorINS_9allocatorIS6_EEEEEptB8ue170006Ev, symObjAddr: 0x1D8C, symBinAddr: 0x100002E08, symSize: 0x28 }
  - { offsetInCU: 0xBD31, offset: 0xBD31, size: 0x8, addend: 0x0, symName: __ZNSt3__110unique_ptrINS_11__tree_nodeINS_12__value_typeIi4starEEPvEENS_22__tree_node_destructorINS_9allocatorIS6_EEEEE11get_deleterB8ue170006Ev, symObjAddr: 0x1DB4, symBinAddr: 0x100002E30, symSize: 0x24 }
  - { offsetInCU: 0xBD57, offset: 0xBD57, size: 0x8, addend: 0x0, symName: __ZNSt3__19allocatorINS_11__tree_nodeINS_12__value_typeIi4starEEPvEEE8allocateB8ue170006Em, symObjAddr: 0x1DD8, symBinAddr: 0x100002E54, symSize: 0x5C }
  - { offsetInCU: 0xBD95, offset: 0xBD95, size: 0x8, addend: 0x0, symName: __ZNSt3__116allocator_traitsINS_9allocatorINS_11__tree_nodeINS_12__value_typeIi4starEEPvEEEEE8max_sizeB8ue170006IS8_vEEmRKS8_, symObjAddr: 0x1E34, symBinAddr: 0x100002EB0, symSize: 0x24 }
  - { offsetInCU: 0xBDC3, offset: 0xBDC3, size: 0x8, addend: 0x0, symName: __ZNKSt3__19allocatorINS_11__tree_nodeINS_12__value_typeIi4starEEPvEEE8max_sizeB8ue170006Ev, symObjAddr: 0x1EB4, symBinAddr: 0x100002F30, symSize: 0x18 }
  - { offsetInCU: 0xBDE9, offset: 0xBDE9, size: 0x8, addend: 0x0, symName: __ZNSt3__122__tree_node_destructorINS_9allocatorINS_11__tree_nodeINS_12__value_typeIi4starEEPvEEEEEC2B8ue170006ERS8_b, symObjAddr: 0x1EF0, symBinAddr: 0x100002F6C, symSize: 0x38 }
  - { offsetInCU: 0xBE31, offset: 0xBE31, size: 0x8, addend: 0x0, symName: __ZNSt3__110unique_ptrINS_11__tree_nodeINS_12__value_typeIi4starEEPvEENS_22__tree_node_destructorINS_9allocatorIS6_EEEEEC2B8ue170006ILb1EvEEPS6_NS_16__dependent_typeINS_27__unique_ptr_deleter_sfinaeISA_EEXT_EE20__good_rval_ref_typeE, symObjAddr: 0x1F28, symBinAddr: 0x100002FA4, symSize: 0x48 }
  - { offsetInCU: 0xBE82, offset: 0xBE82, size: 0x8, addend: 0x0, symName: __ZNSt3__117__compressed_pairIPNS_11__tree_nodeINS_12__value_typeIi4starEEPvEENS_22__tree_node_destructorINS_9allocatorIS6_EEEEEC1B8ue170006IRS7_SB_EEOT_OT0_, symObjAddr: 0x1F70, symBinAddr: 0x100002FEC, symSize: 0x3C }
  - { offsetInCU: 0xBEDA, offset: 0xBEDA, size: 0x8, addend: 0x0, symName: __ZNSt3__117__compressed_pairIPNS_11__tree_nodeINS_12__value_typeIi4starEEPvEENS_22__tree_node_destructorINS_9allocatorIS6_EEEEEC2B8ue170006IRS7_SB_EEOT_OT0_, symObjAddr: 0x1FAC, symBinAddr: 0x100003028, symSize: 0x48 }
  - { offsetInCU: 0xBF32, offset: 0xBF32, size: 0x8, addend: 0x0, symName: __ZNSt3__122__compressed_pair_elemIPNS_11__tree_nodeINS_12__value_typeIi4starEEPvEELi0ELb0EEC2B8ue170006IRS7_vEEOT_, symObjAddr: 0x1FF4, symBinAddr: 0x100003070, symSize: 0x24 }
  - { offsetInCU: 0xBF74, offset: 0xBF74, size: 0x8, addend: 0x0, symName: __ZNSt3__122__compressed_pair_elemINS_22__tree_node_destructorINS_9allocatorINS_11__tree_nodeINS_12__value_typeIi4starEEPvEEEEEELi1ELb0EEC2B8ue170006ISA_vEEOT_, symObjAddr: 0x2018, symBinAddr: 0x100003094, symSize: 0x24 }
  - { offsetInCU: 0xBFB6, offset: 0xBFB6, size: 0x8, addend: 0x0, symName: __ZNSt3__19allocatorINS_11__tree_nodeINS_12__value_typeIi4starEEPvEEE9constructB8ue170006INS_4pairIKiS3_EEJRKNS_21piecewise_construct_tENS_5tupleIJRSA_EEENSF_IJEEEEEEvPT_DpOT0_, symObjAddr: 0x203C, symBinAddr: 0x1000030B8, symSize: 0x44 }
  - { offsetInCU: 0xC032, offset: 0xC032, size: 0x8, addend: 0x0, symName: __ZNSt3__14pairIKi4starEC1B8ue170006IJRS1_EJEEENS_21piecewise_construct_tENS_5tupleIJDpT_EEENS7_IJDpT0_EEE, symObjAddr: 0x2080, symBinAddr: 0x1000030FC, symSize: 0x44 }
  - { offsetInCU: 0xC099, offset: 0xC099, size: 0x8, addend: 0x0, symName: __ZNSt3__14pairIKi4starEC1B8ue170006IJRS1_EJEJLm0EEJEEENS_21piecewise_construct_tERNS_5tupleIJDpT_EEERNS7_IJDpT0_EEENS_15__tuple_indicesIJXspT1_EEEENSG_IJXspT2_EEEE, symObjAddr: 0x20C4, symBinAddr: 0x100003140, symSize: 0x3C }
  - { offsetInCU: 0xC129, offset: 0xC129, size: 0x8, addend: 0x0, symName: __ZNSt3__14pairIKi4starEC2B8ue170006IJRS1_EJEJLm0EEJEEENS_21piecewise_construct_tERNS_5tupleIJDpT_EEERNS7_IJDpT0_EEENS_15__tuple_indicesIJXspT1_EEEENSG_IJXspT2_EEEE, symObjAddr: 0x2100, symBinAddr: 0x10000317C, symSize: 0x48 }
  - { offsetInCU: 0xC1B9, offset: 0xC1B9, size: 0x8, addend: 0x0, symName: __ZNSt3__112__tuple_leafILm0ERKiLb0EE3getB8ue170006Ev, symObjAddr: 0x216C, symBinAddr: 0x1000031E8, symSize: 0x18 }
  - { offsetInCU: 0xC1DF, offset: 0xC1DF, size: 0x8, addend: 0x0, symName: __ZNKSt3__117__compressed_pairIPNS_11__tree_nodeINS_12__value_typeIi4starEEPvEENS_22__tree_node_destructorINS_9allocatorIS6_EEEEE5firstB8ue170006Ev, symObjAddr: 0x2184, symBinAddr: 0x100003200, symSize: 0x24 }
  - { offsetInCU: 0xC205, offset: 0xC205, size: 0x8, addend: 0x0, symName: __ZNKSt3__122__compressed_pair_elemIPNS_11__tree_nodeINS_12__value_typeIi4starEEPvEELi0ELb0EE5__getB8ue170006Ev, symObjAddr: 0x21A8, symBinAddr: 0x100003224, symSize: 0x14 }
  - { offsetInCU: 0xC22B, offset: 0xC22B, size: 0x8, addend: 0x0, symName: __ZNSt3__117__compressed_pairIPNS_11__tree_nodeINS_12__value_typeIi4starEEPvEENS_22__tree_node_destructorINS_9allocatorIS6_EEEEE6secondB8ue170006Ev, symObjAddr: 0x21BC, symBinAddr: 0x100003238, symSize: 0x28 }
  - { offsetInCU: 0xC251, offset: 0xC251, size: 0x8, addend: 0x0, symName: __ZNSt3__122__compressed_pair_elemINS_22__tree_node_destructorINS_9allocatorINS_11__tree_nodeINS_12__value_typeIi4starEEPvEEEEEELi1ELb0EE5__getB8ue170006Ev, symObjAddr: 0x21E4, symBinAddr: 0x100003260, symSize: 0x14 }
  - { offsetInCU: 0xC277, offset: 0xC277, size: 0x8, addend: 0x0, symName: __ZNSt3__16__treeINS_12__value_typeIi4starEENS_19__map_value_compareIiS3_NS_4lessIiEELb1EEENS_9allocatorIS3_EEE4sizeB8ue170006Ev, symObjAddr: 0x2524, symBinAddr: 0x1000035A0, symSize: 0x28 }
  - { offsetInCU: 0xC29D, offset: 0xC29D, size: 0x8, addend: 0x0, symName: __ZNKSt3__116__tree_node_baseIPvE15__parent_unsafeB8ue170006Ev, symObjAddr: 0x254C, symBinAddr: 0x1000035C8, symSize: 0x18 }
  - { offsetInCU: 0xC2C3, offset: 0xC2C3, size: 0x8, addend: 0x0, symName: __ZNSt3__116__tree_node_baseIPvE12__set_parentB8ue170006EPS2_, symObjAddr: 0x2734, symBinAddr: 0x1000037B0, symSize: 0x20 }
  - { offsetInCU: 0xC2F8, offset: 0xC2F8, size: 0x8, addend: 0x0, symName: __ZNSt3__117__compressed_pairImNS_19__map_value_compareIiNS_12__value_typeIi4starEENS_4lessIiEELb1EEEE5firstB8ue170006Ev, symObjAddr: 0x2754, symBinAddr: 0x1000037D0, symSize: 0x24 }
  - { offsetInCU: 0xC31E, offset: 0xC31E, size: 0x8, addend: 0x0, symName: __ZNSt3__122__compressed_pair_elemImLi0ELb0EE5__getB8ue170006Ev, symObjAddr: 0x2778, symBinAddr: 0x1000037F4, symSize: 0x14 }
  - { offsetInCU: 0xC344, offset: 0xC344, size: 0x8, addend: 0x0, symName: __ZNSt3__117__compressed_pairIPNS_11__tree_nodeINS_12__value_typeIi4starEEPvEENS_22__tree_node_destructorINS_9allocatorIS6_EEEEE5firstB8ue170006Ev, symObjAddr: 0x278C, symBinAddr: 0x100003808, symSize: 0x24 }
  - { offsetInCU: 0xC36A, offset: 0xC36A, size: 0x8, addend: 0x0, symName: __ZNSt3__122__compressed_pair_elemIPNS_11__tree_nodeINS_12__value_typeIi4starEEPvEELi0ELb0EE5__getB8ue170006Ev, symObjAddr: 0x27B0, symBinAddr: 0x10000382C, symSize: 0x14 }
  - { offsetInCU: 0xC390, offset: 0xC390, size: 0x8, addend: 0x0, symName: __ZNSt3__110unique_ptrINS_11__tree_nodeINS_12__value_typeIi4starEEPvEENS_22__tree_node_destructorINS_9allocatorIS6_EEEEED2B8ue170006Ev, symObjAddr: 0x27C4, symBinAddr: 0x100003840, symSize: 0x30 }
  - { offsetInCU: 0xC3BA, offset: 0xC3BA, size: 0x8, addend: 0x0, symName: __ZNSt3__110unique_ptrINS_11__tree_nodeINS_12__value_typeIi4starEEPvEENS_22__tree_node_destructorINS_9allocatorIS6_EEEEE5resetB8ue170006EPS6_, symObjAddr: 0x27F4, symBinAddr: 0x100003870, symSize: 0x78 }
  - { offsetInCU: 0xC3FE, offset: 0xC3FE, size: 0x8, addend: 0x0, symName: __ZNSt3__122__tree_node_destructorINS_9allocatorINS_11__tree_nodeINS_12__value_typeIi4starEEPvEEEEEclB8ue170006EPS7_, symObjAddr: 0x286C, symBinAddr: 0x1000038E8, symSize: 0x94 }
  - { offsetInCU: 0xC433, offset: 0xC433, size: 0x8, addend: 0x0, symName: __ZNSt3__115__tree_iteratorINS_12__value_typeIi4starEEPNS_11__tree_nodeIS3_PvEElEC2B8ue170006ES7_, symObjAddr: 0x2900, symBinAddr: 0x10000397C, symSize: 0x20 }
  - { offsetInCU: 0xC46C, offset: 0xC46C, size: 0x8, addend: 0x0, symName: __ZNSt3__14pairINS_15__tree_iteratorINS_12__value_typeIi4starEEPNS_11__tree_nodeIS4_PvEElEEbEC2B8ue170006IS9_RbLS6_0EEEOT_OT0_, symObjAddr: 0x2920, symBinAddr: 0x10000399C, symSize: 0x38 }
  - { offsetInCU: 0xC4CA, offset: 0xC4CA, size: 0x8, addend: 0x0, symName: __ZNSt3__15tupleIJRKiEEC1B8ue170006INS_4_AndELi0EEES2_, symObjAddr: 0x2958, symBinAddr: 0x1000039D4, symSize: 0x34 }
  - { offsetInCU: 0xC512, offset: 0xC512, size: 0x8, addend: 0x0, symName: __ZNSt3__15tupleIJRKiEEC2B8ue170006INS_4_AndELi0EEES2_, symObjAddr: 0x298C, symBinAddr: 0x100003A08, symSize: 0x34 }
  - { offsetInCU: 0xC55A, offset: 0xC55A, size: 0x8, addend: 0x0, symName: __ZNSt3__112__tuple_implINS_15__tuple_indicesIJLm0EEEEJRKiEEC1B8ue170006IJLm0EEJS4_EJEJEJS4_EEENS1_IJXspT_EEEENS_13__tuple_typesIJDpT0_EEENS1_IJXspT1_EEEENS8_IJDpT2_EEEDpOT3_, symObjAddr: 0x29C0, symBinAddr: 0x100003A3C, symSize: 0x34 }
  - { offsetInCU: 0xC5EF, offset: 0xC5EF, size: 0x8, addend: 0x0, symName: __ZNSt3__112__tuple_implINS_15__tuple_indicesIJLm0EEEEJRKiEEC2B8ue170006IJLm0EEJS4_EJEJEJS4_EEENS1_IJXspT_EEEENS_13__tuple_typesIJDpT0_EEENS1_IJXspT1_EEEENS8_IJDpT2_EEEDpOT3_, symObjAddr: 0x29F4, symBinAddr: 0x100003A70, symSize: 0x34 }
  - { offsetInCU: 0xC684, offset: 0xC684, size: 0x8, addend: 0x0, symName: __ZNSt3__112__tuple_leafILm0ERKiLb0EEC2B8ue170006IS2_vEEOT_, symObjAddr: 0x2A28, symBinAddr: 0x100003AA4, symSize: 0x20 }
  - { offsetInCU: 0xC6C7, offset: 0xC6C7, size: 0x8, addend: 0x0, symName: __ZNSt3__114pointer_traitsIPNS_12__value_typeIi4starEEE10pointer_toB8ue170006ERS3_, symObjAddr: 0x2A48, symBinAddr: 0x100003AC4, symSize: 0x14 }
  - { offsetInCU: 0xC6EA, offset: 0xC6EA, size: 0x8, addend: 0x0, symName: __ZNKSt3__115__tree_iteratorINS_12__value_typeIi4starEEPNS_11__tree_nodeIS3_PvEElE8__get_npB8ue170006Ev, symObjAddr: 0x2A5C, symBinAddr: 0x100003AD8, symSize: 0x18 }
...
